target datalayout = "e-m:e-p270:32:32-p271:32:32-p272:64:64-i64:64-i128:128-f80:128-n8:16:32:64-S128"
target triple = "x86_64-pc-linux-gnu"

%struct.Curl_easy = type { i32, i64, i64, ptr, %struct.Curl_llist_node, %struct.Curl_llist_node, i32, i32, %struct.Curl_message, %struct.easy_pollset, %struct.Names, ptr, ptr, ptr, %struct.SingleRequest, %struct.UserDefined, ptr, ptr, %struct.Progress, %struct.UrlState, ptr, %struct.PureInfo, %struct.curl_tlssessioninfo }
%struct.Curl_llist_node = type { ptr, ptr, ptr, ptr }
%struct.Curl_message = type { %struct.Curl_llist_node, %struct.CURLMsg }
%struct.CURLMsg = type { i32, ptr, %union.anon }
%union.anon = type { ptr }
%struct.easy_pollset = type { [5 x i32], i32, [5 x i8] }
%struct.Names = type { ptr, i32 }
%struct.SingleRequest = type <{ i64, i64, i64, i64, %struct.curltime, i32, i32, i32, i32, i64, i32, i32, i32, i32, ptr, ptr, %struct.bufq, i64, i64, ptr, ptr, %union.anon.0, ptr, i8, i32, [3 x i8] }>
%struct.curltime = type { i64, i32 }
%struct.bufq = type { ptr, ptr, ptr, ptr, i64, i64, i64, i32 }
%union.anon.0 = type { ptr }
%struct.UserDefined = type <{ ptr, ptr, ptr, ptr, ptr, ptr, i16, [6 x i8], i64, i64, i64, ptr, ptr, i64, i16, i16, [4 x i8], ptr, ptr, ptr, ptr, ptr, ptr, ptr, ptr, ptr, ptr, ptr, ptr, ptr, ptr, ptr, ptr, ptr, ptr, ptr, ptr, ptr, ptr, ptr, i32, i32, i32, i32, i32, [4 x i8], i64, i64, i64, i64, i64, i64, i64, i64, ptr, ptr, %struct.curl_mimepart, ptr, ptr, i64, i8, i8, i8, [5 x i8], %struct.ssl_config_data, %struct.ssl_config_data, ptr, i16, i8, i8, [4 x i8], %struct.ssl_general_config, i32, i32, i32, [4 x i8], ptr, ptr, i8, [7 x i8], i64, i8, i8, i8, i8, i32, ptr, ptr, ptr, i8, i8, [2 x i8], i32, [63 x ptr], [8 x ptr], i32, i32, i32, [4 x i8], ptr, ptr, ptr, ptr, ptr, i8, [3 x i8], i32, i32, i32, i64, %struct.Curl_data_priority, ptr, ptr, i64, ptr, i64, ptr, ptr, ptr, i8, [3 x i8], i32, i8, i8, i64, [6 x i8] }>
%struct.curl_mimepart = type { ptr, ptr, i32, i32, ptr, ptr, ptr, ptr, ptr, ptr, ptr, ptr, ptr, ptr, ptr, i64, %struct.mime_state, ptr, %struct.mime_encoder_state, i64 }
%struct.mime_state = type { i32, ptr, i64 }
%struct.mime_encoder_state = type { i64, i64, i64, [256 x i8] }
%struct.ssl_config_data = type { %struct.ssl_primary_config, i64, ptr, ptr, ptr, ptr, ptr, ptr, ptr, i16 }
%struct.ssl_primary_config = type { ptr, ptr, ptr, ptr, ptr, ptr, ptr, ptr, ptr, ptr, ptr, ptr, i8, i32, i8, i8 }
%struct.ssl_general_config = type { i64, i32 }
%struct.Curl_data_priority = type { ptr, ptr, i32, i8 }
%struct.Progress = type { i64, %struct.pgrs_dir, %struct.pgrs_dir, i64, i64, i32, i32, i64, i64, i64, i64, i64, i64, i64, i64, i64, %struct.curltime, %struct.curltime, %struct.curltime, %struct.curltime, [6 x i64], [6 x %struct.curltime], i32, i8 }
%struct.pgrs_dir = type { i64, i64, i64, %struct.pgrs_measure }
%struct.pgrs_measure = type { %struct.curltime, i64 }
%struct.UrlState = type { %struct.curltime, i64, i64, %struct.dynbuf, ptr, i64, ptr, i32, i32, i32, ptr, i64, i32, i64, i32, ptr, %struct.digestdata, %struct.digestdata, %struct.auth, %struct.auth, %struct.Curl_async, ptr, %struct.curltime, %struct.Curl_tree, %struct.Curl_llist, [15 x %struct.time_node], ptr, ptr, i64, i64, %struct.Curl_data_priority, ptr, ptr, ptr, %struct.urlpieces, ptr, ptr, ptr, ptr, ptr, i64, %struct.dynbuf, %struct.Curl_llist, [2 x %struct.curl_header], ptr, i32, ptr, ptr, %struct.store_netrc, %struct.dynamically_allocated_data, i8, i8, i8, i8, i32 }
%struct.digestdata = type { ptr, ptr, ptr, ptr, ptr, ptr, i32, i8, i8 }
%struct.auth = type { i64, i64, i64, i8 }
%struct.Curl_async = type { ptr, ptr, ptr, ptr, i32, i32, i8 }
%struct.Curl_tree = type { ptr, ptr, ptr, ptr, %struct.curltime, ptr }
%struct.time_node = type { %struct.Curl_llist_node, %struct.curltime, i32 }
%struct.urlpieces = type { ptr, ptr, ptr, ptr, ptr, ptr, ptr, ptr }
%struct.dynbuf = type { ptr, i64, i64, i64 }
%struct.Curl_llist = type { ptr, ptr, ptr, i64 }
%struct.curl_header = type { ptr, ptr, i64, i64, i32, ptr }
%struct.store_netrc = type { %struct.dynbuf, ptr, i8 }
%struct.dynamically_allocated_data = type { ptr, ptr, ptr, ptr, ptr, ptr, ptr, ptr, ptr, ptr, ptr, ptr, ptr }
%struct.PureInfo = type { i32, i32, i32, i64, i64, i64, i64, i64, ptr, ptr, i64, i32, %struct.ip_quadruple, i32, ptr, i32, %struct.curl_certinfo, i32, i8 }
%struct.ip_quadruple = type { [46 x i8], [46 x i8], i32, i32 }
%struct.curl_certinfo = type { i32, ptr }
%struct.curl_tlssessioninfo = type { i32, ptr }

; Function Attrs: nounwind uwtable
define dso_local void @Curl_ratelimit(ptr noundef %0, i64 %1, i32 %2) #0 {
  %4 = alloca %struct.curltime, align 8
  %5 = alloca ptr, align 8
  %6 = getelementptr inbounds nuw { i64, i32 }, ptr %4, i32 0, i32 0
  store i64 %1, ptr %6, align 8
  %7 = getelementptr inbounds nuw { i64, i32 }, ptr %4, i32 0, i32 1
  store i32 %2, ptr %7, align 8
  store ptr %0, ptr %5, align 8, !tbaa !4
  %8 = load ptr, ptr %5, align 8, !tbaa !4
  %9 = getelementptr inbounds nuw %struct.Curl_easy, ptr %8, i32 0, i32 15
  %10 = getelementptr inbounds nuw %struct.UserDefined, ptr %9, i32 0, i32 52
  %11 = load i64, ptr %10, align 8, !tbaa !98
  %12 = icmp ne i64 %11, 0
  br i1 %12, label %13, label %46

13:                                               ; preds = %3
  %14 = load ptr, ptr %5, align 8, !tbaa !4
  %15 = getelementptr inbounds nuw %struct.Curl_easy, ptr %14, i32 0, i32 18
  %16 = getelementptr inbounds nuw %struct.Progress, ptr %15, i32 0, i32 2
  %17 = getelementptr inbounds nuw %struct.pgrs_dir, ptr %16, i32 0, i32 3
  %18 = getelementptr inbounds nuw %struct.pgrs_measure, ptr %17, i32 0, i32 0
  %19 = getelementptr inbounds nuw { i64, i32 }, ptr %4, i32 0, i32 0
  %20 = load i64, ptr %19, align 8
  %21 = getelementptr inbounds nuw { i64, i32 }, ptr %4, i32 0, i32 1
  %22 = load i32, ptr %21, align 8
  %23 = getelementptr inbounds nuw { i64, i32 }, ptr %18, i32 0, i32 0
  %24 = load i64, ptr %23, align 8
  %25 = getelementptr inbounds nuw { i64, i32 }, ptr %18, i32 0, i32 1
  %26 = load i32, ptr %25, align 8
  %27 = call i64 @Curl_timediff(i64 %20, i32 %22, i64 %24, i32 %26)
  %28 = icmp sge i64 %27, 3000
  br i1 %28, label %29, label %45

29:                                               ; preds = %13
  %30 = load ptr, ptr %5, align 8, !tbaa !4
  %31 = getelementptr inbounds nuw %struct.Curl_easy, ptr %30, i32 0, i32 18
  %32 = getelementptr inbounds nuw %struct.Progress, ptr %31, i32 0, i32 2
  %33 = getelementptr inbounds nuw %struct.pgrs_dir, ptr %32, i32 0, i32 3
  %34 = getelementptr inbounds nuw %struct.pgrs_measure, ptr %33, i32 0, i32 0
  call void @llvm.memcpy.p0.p0.i64(ptr align 8 %34, ptr align 8 %4, i64 16, i1 false), !tbaa.struct !91
  %35 = load ptr, ptr %5, align 8, !tbaa !4
  %36 = getelementptr inbounds nuw %struct.Curl_easy, ptr %35, i32 0, i32 18
  %37 = getelementptr inbounds nuw %struct.Progress, ptr %36, i32 0, i32 2
  %38 = getelementptr inbounds nuw %struct.pgrs_dir, ptr %37, i32 0, i32 1
  %39 = load i64, ptr %38, align 8, !tbaa !96
  %40 = load ptr, ptr %5, align 8, !tbaa !4
  %41 = getelementptr inbounds nuw %struct.Curl_easy, ptr %40, i32 0, i32 18
  %42 = getelementptr inbounds nuw %struct.Progress, ptr %41, i32 0, i32 2
  %43 = getelementptr inbounds nuw %struct.pgrs_dir, ptr %42, i32 0, i32 3
  %44 = getelementptr inbounds nuw %struct.pgrs_measure, ptr %43, i32 0, i32 1
  store i64 %39, ptr %44, align 8, !tbaa !95
  br label %45

45:                                               ; preds = %29, %13
  br label %46

46:                                               ; preds = %45, %3
  %47 = load ptr, ptr %5, align 8, !tbaa !4
  %48 = getelementptr inbounds nuw %struct.Curl_easy, ptr %47, i32 0, i32 15
  %49 = getelementptr inbounds nuw %struct.UserDefined, ptr %48, i32 0, i32 51
  %50 = load i64, ptr %49, align 8, !tbaa !99
  %51 = icmp ne i64 %50, 0
  br i1 %51, label %52, label %85

52:                                               ; preds = %46
  %53 = load ptr, ptr %5, align 8, !tbaa !4
  %54 = getelementptr inbounds nuw %struct.Curl_easy, ptr %53, i32 0, i32 18
  %55 = getelementptr inbounds nuw %struct.Progress, ptr %54, i32 0, i32 1
  %56 = getelementptr inbounds nuw %struct.pgrs_dir, ptr %55, i32 0, i32 3
  %57 = getelementptr inbounds nuw %struct.pgrs_measure, ptr %56, i32 0, i32 0
  %58 = getelementptr inbounds nuw { i64, i32 }, ptr %4, i32 0, i32 0
  %59 = load i64, ptr %58, align 8
  %60 = getelementptr inbounds nuw { i64, i32 }, ptr %4, i32 0, i32 1
  %61 = load i32, ptr %60, align 8
  %62 = getelementptr inbounds nuw { i64, i32 }, ptr %57, i32 0, i32 0
  %63 = load i64, ptr %62, align 8
  %64 = getelementptr inbounds nuw { i64, i32 }, ptr %57, i32 0, i32 1
  %65 = load i32, ptr %64, align 8
  %66 = call i64 @Curl_timediff(i64 %59, i32 %61, i64 %63, i32 %65)
  %67 = icmp sge i64 %66, 3000
  br i1 %67, label %68, label %84

68:                                               ; preds = %52
  %69 = load ptr, ptr %5, align 8, !tbaa !4
  %70 = getelementptr inbounds nuw %struct.Curl_easy, ptr %69, i32 0, i32 18
  %71 = getelementptr inbounds nuw %struct.Progress, ptr %70, i32 0, i32 1
  %72 = getelementptr inbounds nuw %struct.pgrs_dir, ptr %71, i32 0, i32 3
  %73 = getelementptr inbounds nuw %struct.pgrs_measure, ptr %72, i32 0, i32 0
  call void @llvm.memcpy.p0.p0.i64(ptr align 8 %73, ptr align 8 %4, i64 16, i1 false), !tbaa.struct !91
  %74 = load ptr, ptr %5, align 8, !tbaa !4
  %75 = getelementptr inbounds nuw %struct.Curl_easy, ptr %74, i32 0, i32 18
  %76 = getelementptr inbounds nuw %struct.Progress, ptr %75, i32 0, i32 1
  %77 = getelementptr inbounds nuw %struct.pgrs_dir, ptr %76, i32 0, i32 1
  %78 = load i64, ptr %77, align 8, !tbaa !97
  %79 = load ptr, ptr %5, align 8, !tbaa !4
  %80 = getelementptr inbounds nuw %struct.Curl_easy, ptr %79, i32 0, i32 18
  %81 = getelementptr inbounds nuw %struct.Progress, ptr %80, i32 0, i32 1
  %82 = getelementptr inbounds nuw %struct.pgrs_dir, ptr %81, i32 0, i32 3
  %83 = getelementptr inbounds nuw %struct.pgrs_measure, ptr %82, i32 0, i32 1
  store i64 %78, ptr %83, align 8, !tbaa !94
  br label %84

84:                                               ; preds = %68, %52
  br label %85

85:                                               ; preds = %84, %46
  ret void
}

; Function Attrs: nounwind uwtable
define dso_local void @Curl_pgrsStartNow(ptr noundef %0) #0 {
  %2 = alloca ptr, align 8
  %3 = alloca %struct.curltime, align 8
  store ptr %0, ptr %2, align 8, !tbaa !4
  %4 = load ptr, ptr %2, align 8, !tbaa !4
  %5 = getelementptr inbounds nuw %struct.Curl_easy, ptr %4, i32 0, i32 18
  %6 = getelementptr inbounds nuw %struct.Progress, ptr %5, i32 0, i32 22
  store i32 0, ptr %6, align 8, !tbaa !81
  %7 = load ptr, ptr %2, align 8, !tbaa !4
  %8 = getelementptr inbounds nuw %struct.Curl_easy, ptr %7, i32 0, i32 18
  %9 = getelementptr inbounds nuw %struct.Progress, ptr %8, i32 0, i32 16
  call void @llvm.lifetime.start.p0(i64 16, ptr %3) #5
  %10 = call { i64, i32 } @Curl_now()
  %11 = getelementptr inbounds nuw { i64, i32 }, ptr %3, i32 0, i32 0
  %12 = extractvalue { i64, i32 } %10, 0
  store i64 %12, ptr %11, align 8
  %13 = getelementptr inbounds nuw { i64, i32 }, ptr %3, i32 0, i32 1
  %14 = extractvalue { i64, i32 } %10, 1
  store i32 %14, ptr %13, align 8
  call void @llvm.memcpy.p0.p0.i64(ptr align 8 %9, ptr align 8 %3, i64 16, i1 false), !tbaa.struct !91
  call void @llvm.lifetime.end.p0(i64 16, ptr %3) #5
  %15 = load ptr, ptr %2, align 8, !tbaa !4
  %16 = getelementptr inbounds nuw %struct.Curl_easy, ptr %15, i32 0, i32 18
  %17 = getelementptr inbounds nuw %struct.Progress, ptr %16, i32 0, i32 23
  %18 = load i8, ptr %17, align 4
  %19 = and i8 %18, -3
  %20 = or i8 %19, 0
  store i8 %20, ptr %17, align 4
  %21 = load ptr, ptr %2, align 8, !tbaa !4
  %22 = getelementptr inbounds nuw %struct.Curl_easy, ptr %21, i32 0, i32 18
  %23 = getelementptr inbounds nuw %struct.Progress, ptr %22, i32 0, i32 1
  %24 = getelementptr inbounds nuw %struct.pgrs_dir, ptr %23, i32 0, i32 3
  %25 = getelementptr inbounds nuw %struct.pgrs_measure, ptr %24, i32 0, i32 0
  %26 = load ptr, ptr %2, align 8, !tbaa !4
  %27 = getelementptr inbounds nuw %struct.Curl_easy, ptr %26, i32 0, i32 18
  %28 = getelementptr inbounds nuw %struct.Progress, ptr %27, i32 0, i32 16
  call void @llvm.memcpy.p0.p0.i64(ptr align 8 %25, ptr align 8 %28, i64 16, i1 false), !tbaa.struct !91
  %29 = load ptr, ptr %2, align 8, !tbaa !4
  %30 = getelementptr inbounds nuw %struct.Curl_easy, ptr %29, i32 0, i32 18
  %31 = getelementptr inbounds nuw %struct.Progress, ptr %30, i32 0, i32 2
  %32 = getelementptr inbounds nuw %struct.pgrs_dir, ptr %31, i32 0, i32 3
  %33 = getelementptr inbounds nuw %struct.pgrs_measure, ptr %32, i32 0, i32 0
  %34 = load ptr, ptr %2, align 8, !tbaa !4
  %35 = getelementptr inbounds nuw %struct.Curl_easy, ptr %34, i32 0, i32 18
  %36 = getelementptr inbounds nuw %struct.Progress, ptr %35, i32 0, i32 16
  call void @llvm.memcpy.p0.p0.i64(ptr align 8 %33, ptr align 8 %36, i64 16, i1 false), !tbaa.struct !91
  %37 = load ptr, ptr %2, align 8, !tbaa !4
  %38 = getelementptr inbounds nuw %struct.Curl_easy, ptr %37, i32 0, i32 18
  %39 = getelementptr inbounds nuw %struct.Progress, ptr %38, i32 0, i32 1
  %40 = getelementptr inbounds nuw %struct.pgrs_dir, ptr %39, i32 0, i32 3
  %41 = getelementptr inbounds nuw %struct.pgrs_measure, ptr %40, i32 0, i32 1
  store i64 0, ptr %41, align 8, !tbaa !94
  %42 = load ptr, ptr %2, align 8, !tbaa !4
  %43 = getelementptr inbounds nuw %struct.Curl_easy, ptr %42, i32 0, i32 18
  %44 = getelementptr inbounds nuw %struct.Progress, ptr %43, i32 0, i32 2
  %45 = getelementptr inbounds nuw %struct.pgrs_dir, ptr %44, i32 0, i32 3
  %46 = getelementptr inbounds nuw %struct.pgrs_measure, ptr %45, i32 0, i32 1
  store i64 0, ptr %46, align 8, !tbaa !95
  %47 = load ptr, ptr %2, align 8, !tbaa !4
  %48 = getelementptr inbounds nuw %struct.Curl_easy, ptr %47, i32 0, i32 18
  %49 = getelementptr inbounds nuw %struct.Progress, ptr %48, i32 0, i32 2
  %50 = getelementptr inbounds nuw %struct.pgrs_dir, ptr %49, i32 0, i32 1
  store i64 0, ptr %50, align 8, !tbaa !96
  %51 = load ptr, ptr %2, align 8, !tbaa !4
  %52 = getelementptr inbounds nuw %struct.Curl_easy, ptr %51, i32 0, i32 18
  %53 = getelementptr inbounds nuw %struct.Progress, ptr %52, i32 0, i32 1
  %54 = getelementptr inbounds nuw %struct.pgrs_dir, ptr %53, i32 0, i32 1
  store i64 0, ptr %54, align 8, !tbaa !97
  %55 = load ptr, ptr %2, align 8, !tbaa !4
  %56 = getelementptr inbounds nuw %struct.Curl_easy, ptr %55, i32 0, i32 18
  %57 = getelementptr inbounds nuw %struct.Progress, ptr %56, i32 0, i32 6
  %58 = load i32, ptr %57, align 4, !tbaa !79
  %59 = and i32 %58, 144
  store i32 %59, ptr %57, align 4, !tbaa !79
  %60 = load ptr, ptr %2, align 8, !tbaa !4
  %61 = load ptr, ptr %2, align 8, !tbaa !4
  %62 = getelementptr inbounds nuw %struct.Curl_easy, ptr %61, i32 0, i32 18
  %63 = getelementptr inbounds nuw %struct.Progress, ptr %62, i32 0, i32 16
  %64 = getelementptr inbounds nuw { i64, i32 }, ptr %63, i32 0, i32 0
  %65 = load i64, ptr %64, align 8
  %66 = getelementptr inbounds nuw { i64, i32 }, ptr %63, i32 0, i32 1
  %67 = load i32, ptr %66, align 8
  call void @Curl_ratelimit(ptr noundef %60, i64 %65, i32 %67)
  ret void
}