; Function Attrs: nounwind uwtable
define dso_local void @Curl_pgrsStartNow(ptr noundef captures(none) initializes((2792, 2804), (3000, 3004)) %0) local_unnamed_addr #0 {
  %2 = getelementptr inbounds nuw i8, ptr %0, i64 3000
  store i32 0, ptr %2, align 8, !tbaa !79
  %3 = getelementptr inbounds nuw i8, ptr %0, i64 2792
  %4 = tail call { i64, i32 } @Curl_now() #8
  %5 = extractvalue { i64, i32 } %4, 0
  %6 = extractvalue { i64, i32 } %4, 1
  store i64 %5, ptr %3, align 8, !tbaa !93
  %.sroa.4.0..sroa_idx = getelementptr inbounds nuw i8, ptr %0, i64 2800
  store i32 %6, ptr %.sroa.4.0..sroa_idx, align 8, !tbaa !99
  %7 = getelementptr inbounds nuw i8, ptr %0, i64 3004
  %8 = load i8, ptr %7, align 4
  %9 = and i8 %8, -3
  store i8 %9, ptr %7, align 4
  %10 = getelementptr inbounds nuw i8, ptr %0, i64 2624
  tail call void @llvm.memcpy.p0.p0.i64(ptr noundef nonnull align 8 dereferenceable(16) %10, ptr noundef nonnull align 8 dereferenceable(16) %3, i64 16, i1 false), !tbaa.struct !102
  %11 = getelementptr inbounds nuw i8, ptr %0, i64 2672
  tail call void @llvm.memcpy.p0.p0.i64(ptr noundef nonnull align 8 dereferenceable(16) %11, ptr noundef nonnull align 8 dereferenceable(16) %3, i64 16, i1 false), !tbaa.struct !102
  %12 = getelementptr inbounds nuw i8, ptr %0, i64 2640
  store i64 0, ptr %12, align 8, !tbaa !103
  %13 = getelementptr inbounds nuw i8, ptr %0, i64 2688
  store i64 0, ptr %13, align 8, !tbaa !104
  %14 = getelementptr inbounds nuw i8, ptr %0, i64 2656
  store i64 0, ptr %14, align 8, !tbaa !83
  %15 = getelementptr inbounds nuw i8, ptr %0, i64 2608
  store i64 0, ptr %15, align 8, !tbaa !85
  %16 = getelementptr inbounds nuw i8, ptr %0, i64 2716
  %17 = load i32, ptr %16, align 4, !tbaa !77
  %18 = and i32 %17, 144
  store i32 %18, ptr %16, align 4, !tbaa !77
  %19 = getelementptr inbounds nuw i8, ptr %0, i64 824
  %20 = load i64, ptr %19, align 8, !tbaa !105
  %.not.i = icmp eq i64 %20, 0
  br i1 %.not.i, label %29, label %21

21:                                               ; preds = %1
  %22 = load i64, ptr %11, align 8
  %23 = getelementptr inbounds nuw i8, ptr %0, i64 2680
  %24 = load i32, ptr %23, align 8
  %25 = tail call i64 @Curl_timediff(i64 %5, i32 %6, i64 %22, i32 %24) #8
  %26 = icmp sgt i64 %25, 2999
  br i1 %26, label %27, label %29

27:                                               ; preds = %21
  store i64 %5, ptr %11, align 8, !tbaa !93
  store i32 %6, ptr %23, align 8, !tbaa !99
  %28 = load i64, ptr %14, align 8, !tbaa !83
  store i64 %28, ptr %13, align 8, !tbaa !104
  br label %29

29:                                               ; preds = %27, %21, %1
  %30 = getelementptr inbounds nuw i8, ptr %0, i64 816
  %31 = load i64, ptr %30, align 8, !tbaa !106
  %.not17.i = icmp eq i64 %31, 0
  br i1 %.not17.i, label %Curl_ratelimit.exit, label %32

32:                                               ; preds = %29
  %33 = load i64, ptr %10, align 8
  %34 = getelementptr inbounds nuw i8, ptr %0, i64 2632
  %35 = load i32, ptr %34, align 8
  %36 = tail call i64 @Curl_timediff(i64 %5, i32 %6, i64 %33, i32 %35) #8
  %37 = icmp sgt i64 %36, 2999
  br i1 %37, label %38, label %Curl_ratelimit.exit

38:                                               ; preds = %32
  store i64 %5, ptr %10, align 8, !tbaa !93
  store i32 %6, ptr %34, align 8, !tbaa !99
  %39 = load i64, ptr %15, align 8, !tbaa !85
  store i64 %39, ptr %12, align 8, !tbaa !103
  br label %Curl_ratelimit.exit

Curl_ratelimit.exit:                              ; preds = %29, %32, %38
  ret void
}